; Function Attrs: mustprogress uwtable
define void @_ZN7rocksdb29AppendUserKeyWithMinTimestampEPNSt7__cxx1112basic_stringIcSt11char_traitsIcESaIcEEERKNS_5SliceEm(ptr noundef %0, ptr noundef nonnull readonly align 8 captures(none) dereferenceable(16) %1, i64 noundef %2) local_unnamed_addr #4 personality ptr @__gxx_personality_v0 {
  %4 = getelementptr inbounds nuw i8, ptr %1, i64 8
  %5 = load i64, ptr %4, align 8, !tbaa !4
  %6 = sub i64 %5, %2
  %7 = getelementptr inbounds nuw i8, ptr %0, i64 8
  %8 = load i64, ptr %7, align 8, !tbaa !11
  %9 = sub i64 4611686018427387903, %8
  %10 = icmp ult i64 %9, %6
  br i1 %10, label %11, label %_ZNSt7__cxx1112basic_stringIcSt11char_traitsIcESaIcEE6appendEPKcm.exit

11:                                               ; preds = %3
  tail call void @_ZSt20__throw_length_errorPKc(ptr noundef nonnull @.str.11) #19
  unreachable

_ZNSt7__cxx1112basic_stringIcSt11char_traitsIcESaIcEE6appendEPKcm.exit: ; preds = %3
  %12 = load ptr, ptr %1, align 8, !tbaa !14
  %13 = tail call noundef nonnull align 8 dereferenceable(32) ptr @_ZNSt7__cxx1112basic_stringIcSt11char_traitsIcESaIcEE9_M_appendEPKcm(ptr noundef nonnull align 8 dereferenceable(32) %0, ptr noundef %12, i64 noundef %6)
  %14 = load i64, ptr %7, align 8, !tbaa !11
  %15 = tail call noundef nonnull align 8 dereferenceable(32) ptr @_ZNSt7__cxx1112basic_stringIcSt11char_traitsIcESaIcEE14_M_replace_auxEmmmc(ptr noundef nonnull align 8 dereferenceable(32) %0, i64 noundef %14, i64 noundef 0, i64 noundef %2, i8 noundef signext 0)
  ret void
}